; Function Attrs: mustprogress nofree norecurse nosync nounwind memory(read, argmem: readwrite, inaccessiblemem: none) uwtable
define void @_ZNK9grpc_core23CompressionAlgorithmSet7ToSliceEv(ptr dead_on_unwind noalias writable writeonly sret(%"class.grpc_core::Slice") align 8 captures(none) %0, ptr noundef nonnull readonly align 1 captures(none) dereferenceable(1) %1) local_unnamed_addr #16 align 2 {
  %3 = load i8, ptr %1, align 1, !tbaa !6
  br label %4

4:                                                ; preds = %4, %2
  %.08.i.i.i = phi i64 [ 0, %2 ], [ %11, %4 ]
  %.067.i.i.i = phi i32 [ 0, %2 ], [ %.1.i.i.i, %4 ]
  %5 = trunc nuw nsw i64 %.08.i.i.i to i32
  %6 = trunc nuw i64 %.08.i.i.i to i8
  %7 = shl nuw nsw i8 1, %6
  %8 = and i8 %7, %3
  %.not.i.i.i = icmp eq i8 %8, 0
  %9 = shl nuw nsw i32 1, %5
  %10 = select i1 %.not.i.i.i, i32 0, i32 %9
  %.1.i.i.i = or i32 %10, %.067.i.i.i
  %11 = add nuw nsw i64 %.08.i.i.i, 1
  %exitcond.not.i.i.i = icmp eq i64 %11, 3
  br i1 %exitcond.not.i.i.i, label %_ZNK9grpc_core23CompressionAlgorithmSet8ToStringEv.exit, label %4, !llvm.loop !30

_ZNK9grpc_core23CompressionAlgorithmSet8ToStringEv.exit: ; preds = %4
  %12 = zext i32 %.1.i.i.i to i64
  %13 = getelementptr inbounds nuw [8 x %"class.std::basic_string_view"], ptr @_ZN9grpc_core12_GLOBAL__N_120kCommaSeparatedListsE, i64 0, i64 %12
  %.sroa.0.0.copyload.i.i = load i64, ptr %13, align 8, !tbaa !23
  %.sroa.2.0..sroa_idx.i.i = getelementptr inbounds nuw i8, ptr %13, i64 8
  %.sroa.2.0.copyload.i.i = load ptr, ptr %.sroa.2.0..sroa_idx.i.i, align 8, !tbaa !31
  store ptr inttoptr (i64 1 to ptr), ptr %0, align 8, !tbaa !32, !alias.scope !34
  %.sroa.4.0..sroa_idx.i.i = getelementptr inbounds nuw i8, ptr %0, i64 8
  store i64 %.sroa.0.0.copyload.i.i, ptr %.sroa.4.0..sroa_idx.i.i, align 8, !alias.scope !34
  %.sroa.5.0..sroa_idx.i.i = getelementptr inbounds nuw i8, ptr %0, i64 16
  store ptr %.sroa.2.0.copyload.i.i, ptr %.sroa.5.0..sroa_idx.i.i, align 8, !alias.scope !34
  ret void
}